; Function Attrs: mustprogress nounwind uwtable
define internal void @"_ZN4absl12lts_2024072222internal_any_invocable23RemoteManagerNontrivialIZN9grpc_core12_GLOBAL__N_135EventEngineClientChannelDNSResolver28EventEngineDNSRequestWrapper13OnSRVResolvedENS0_8StatusOrISt6vectorIN17grpc_event_engine12experimental11EventEngine11DNSResolver9SRVRecordESaISD_EEEEE3$_1EEvNS1_14FunctionToCallEPNS1_15TypeErasedStateESK_"(i1 noundef zeroext %0, ptr noundef readonly captures(none) %1, ptr noundef writeonly captures(none) %2) #8 personality ptr @__gxx_personality_v0 {
  %4 = load ptr, ptr %1, align 16, !tbaa !53
  br i1 %0, label %6, label %5

5:                                                ; preds = %3
  store ptr %4, ptr %2, align 16, !tbaa !53
  br label %23

6:                                                ; preds = %3
  %7 = icmp eq ptr %4, null
  br i1 %7, label %23, label %8

8:                                                ; preds = %6
  %9 = getelementptr inbounds nuw i8, ptr %4, i64 32
  %.val.i = load ptr, ptr %9, align 8, !tbaa !185
  %.not.i.i = icmp eq ptr %.val.i, null
  br i1 %.not.i.i, label %_ZN9grpc_core13RefCountedPtrINS_12_GLOBAL__N_135EventEngineClientChannelDNSResolver28EventEngineDNSRequestWrapperEED2Ev.exit.i, label %10

10:                                               ; preds = %8
  %11 = getelementptr inbounds nuw i8, ptr %.val.i, i64 8
  %12 = atomicrmw sub ptr %11, i64 1 acq_rel, align 8
  %13 = icmp eq i64 %12, 1
  br i1 %13, label %14, label %_ZN9grpc_core13RefCountedPtrINS_12_GLOBAL__N_135EventEngineClientChannelDNSResolver28EventEngineDNSRequestWrapperEED2Ev.exit.i, !prof !73

14:                                               ; preds = %10
  tail call void @_ZN9grpc_core12_GLOBAL__N_135EventEngineClientChannelDNSResolver28EventEngineDNSRequestWrapperD2Ev(ptr noundef nonnull align 8 dereferenceable(264) %.val.i) #30
  tail call void @_ZdlPvm(ptr noundef nonnull align 8 dereferenceable(16) %.val.i, i64 noundef 264) #34
  br label %_ZN9grpc_core13RefCountedPtrINS_12_GLOBAL__N_135EventEngineClientChannelDNSResolver28EventEngineDNSRequestWrapperEED2Ev.exit.i

_ZN9grpc_core13RefCountedPtrINS_12_GLOBAL__N_135EventEngineClientChannelDNSResolver28EventEngineDNSRequestWrapperEED2Ev.exit.i: ; preds = %14, %10, %8
  %15 = load ptr, ptr %4, align 8, !tbaa !11
  %16 = getelementptr inbounds nuw i8, ptr %4, i64 16
  %17 = icmp eq ptr %15, %16
  br i1 %17, label %_ZNKSt7__cxx1112basic_stringIcSt11char_traitsIcESaIcEE11_M_is_localEv.exit.thread.i.i.i, label %_ZNKSt7__cxx1112basic_stringIcSt11char_traitsIcESaIcEE11_M_is_localEv.exit.i.i.i

_ZNKSt7__cxx1112basic_stringIcSt11char_traitsIcESaIcEE11_M_is_localEv.exit.thread.i.i.i: ; preds = %_ZN9grpc_core13RefCountedPtrINS_12_GLOBAL__N_135EventEngineClientChannelDNSResolver28EventEngineDNSRequestWrapperEED2Ev.exit.i
  %18 = getelementptr inbounds nuw i8, ptr %4, i64 8
  %19 = load i64, ptr %18, align 8, !tbaa !3
  %20 = icmp ult i64 %19, 16
  tail call void @llvm.assume(i1 %20)
  br label %"_ZZN9grpc_core12_GLOBAL__N_135EventEngineClientChannelDNSResolver28EventEngineDNSRequestWrapper13OnSRVResolvedEN4absl12lts_202407228StatusOrISt6vectorIN17grpc_event_engine12experimental11EventEngine11DNSResolver9SRVRecordESaISB_EEEEEN3$_1D2Ev.exit"

_ZNKSt7__cxx1112basic_stringIcSt11char_traitsIcESaIcEE11_M_is_localEv.exit.i.i.i: ; preds = %_ZN9grpc_core13RefCountedPtrINS_12_GLOBAL__N_135EventEngineClientChannelDNSResolver28EventEngineDNSRequestWrapperEED2Ev.exit.i
  %21 = load i64, ptr %16, align 8, !tbaa !53
  %22 = add i64 %21, 1
  tail call void @_ZdlPvm(ptr noundef %15, i64 noundef %22) #34
  br label %"_ZZN9grpc_core12_GLOBAL__N_135EventEngineClientChannelDNSResolver28EventEngineDNSRequestWrapper13OnSRVResolvedEN4absl12lts_202407228StatusOrISt6vectorIN17grpc_event_engine12experimental11EventEngine11DNSResolver9SRVRecordESaISB_EEEEEN3$_1D2Ev.exit"

"_ZZN9grpc_core12_GLOBAL__N_135EventEngineClientChannelDNSResolver28EventEngineDNSRequestWrapper13OnSRVResolvedEN4absl12lts_202407228StatusOrISt6vectorIN17grpc_event_engine12experimental11EventEngine11DNSResolver9SRVRecordESaISB_EEEEEN3$_1D2Ev.exit": ; preds = %_ZNKSt7__cxx1112basic_stringIcSt11char_traitsIcESaIcEE11_M_is_localEv.exit.thread.i.i.i, %_ZNKSt7__cxx1112basic_stringIcSt11char_traitsIcESaIcEE11_M_is_localEv.exit.i.i.i
  tail call void @_ZdlPvm(ptr noundef nonnull %4, i64 noundef 40) #34
  br label %23

23:                                               ; preds = %6, %"_ZZN9grpc_core12_GLOBAL__N_135EventEngineClientChannelDNSResolver28EventEngineDNSRequestWrapper13OnSRVResolvedEN4absl12lts_202407228StatusOrISt6vectorIN17grpc_event_engine12experimental11EventEngine11DNSResolver9SRVRecordESaISB_EEEEEN3$_1D2Ev.exit", %5
  ret void
}